; Function Attrs: nounwind uwtable
define dso_local noundef i64 @textin(ptr noundef readonly captures(none) %0) local_unnamed_addr #0 {
  %2 = getelementptr inbounds nuw i8, ptr %0, i64 32
  %3 = load i64, ptr %2, align 8
  %4 = inttoptr i64 %3 to ptr
  %5 = tail call i64 @strlen(ptr noundef nonnull readonly dereferenceable(1) %4) #18
  %6 = trunc i64 %5 to i32
  %7 = add i32 %6, 4
  %8 = sext i32 %7 to i64
  %9 = tail call ptr @palloc(i64 noundef %8) #19
  %10 = shl i32 %7, 2
  store i32 %10, ptr %9, align 4
  %11 = getelementptr inbounds nuw i8, ptr %9, i64 4
  %sext.i = shl i64 %5, 32
  %12 = ashr exact i64 %sext.i, 32
  tail call void @llvm.memcpy.p0.p0.i64(ptr nonnull align 4 %11, ptr nonnull readonly align 1 %4, i64 %12, i1 false)
  %13 = ptrtoint ptr %9 to i64
  ret i64 %13
}